(lp0
(i__main__
Phone
p1
(dp2
S'price'
p3
V3399
p4
sS'url'
p5
Vhttps://mobileshop.com.eg/en/mobiles/Mobile-brands/philips-mobile/philips-mobile-v787-dual-sim-gold-17-95-1013
p6
sS'model'
p7
VPhilips
p8
sS'name'
p9
VPhilips Mobile  V787 Dual Sim  ( Gold )
p10
sba(i__main__
Phone
p11
(dp12
g3
V369
p13
sg5
Vhttps://mobileshop.com.eg/en/mobiles/Mobile-brands/philips-mobile/philips-mobile-e103-dual-sim-black-17-95-1001
p14
sg7
g8
sg9
VPhilips Mobile E103 Dual SIM
p15
sba(i__main__
Phone
p16
(dp17
g3
V649
p18
sg5
Vhttps://mobileshop.com.eg/en/mobiles/Mobile-brands/philips-mobile/philips-mobile-e160-dual-sim-black-17-95-1003
p19
sg7
g8
sg9
VPhilips Mobile E160 Dual SIM
p20
sba(i__main__
Phone
p21
(dp22
g3
V1249
p23
sg5
Vhttps://mobileshop.com.eg/en/mobiles/Mobile-brands/philips-mobile/philips-mobile-e311-dual-sim-navy-blue-17-95-1005
p24
sg7
g8
sg9
VPhilips Mobile E311 Dual SIM (Navy blue )
p25
sba(i__main__
Phone
p26
(dp27
g3
V1029
p28
sg5
Vhttps://mobileshop.com.eg/en/mobiles/Mobile-brands/philips-mobile/philips-mobile-s307-dual-sim-grey-17-95-1006
p29
sg7
g8
sg9
VPhilips Mobile S307 Dual SIM + Car Charger + careem 50% discount
p30
sba(i__main__
Phone
p31
(dp32
g3
V1999
p33
sg5
Vhttps://mobileshop.com.eg/en/mobiles/Mobile-brands/philips-mobile/philips-mobile-s326-dual-sim-yellow-17-95-1010
p34
sg7
g8
sg9
VPhilips Mobile S326 Dual SIM + Car Charger + Careem 50% discount
p35
sba(i__main__
Phone
p36
(dp37
g3
V1499
p38
sg5
Vhttps://mobileshop.com.eg/en/mobiles/Mobile-brands/philips-mobile/philips-mobile-s337-dual-sim-grey-17-95-1008
p39
sg7
g8
sg9
VPhilips Mobile S337 Dual SIM + Car Charger + Careem 50% discount
p40
sba(i__main__
Phone
p41
(dp42
g3
V3090
p43
sg5
Vhttps://mobileshop.com.eg/en/mobiles/Mobile-brands/lg-mobile/lg-mobile-k10-dual-sim-gold-flip-cover-17-61-1009
p44
sg7
VLG
p45
sg9
VLG Mobile K10  Dual Sim
p46
sba(i__main__
Phone
p47
(dp48
g3
V3690
p49
sg5
Vhttps://mobileshop.com.eg/en/mobiles/Mobile-brands/lg-mobile/lg-mobile-stylus-2-dual-sim-brown-17-61-1006
p50
sg7
g45
sg9
VLG Mobile Stylus 2  Dual Sim (Brown)
p51
sba(i__main__
Phone
p52
(dp53
g3
V1269
p54
sg5
Vhttps://mobileshop.com.eg/en/mobiles/Mobile-brands/lenovo-mobile/lenovo-mobile-a-plus-18-17-1079
p55
sg7
VLenovo
p56
sg9
VLenovo Mobile A Plus Dual Sim +Kidzinia Voucher
p57
sba(i__main__
Phone
p58
(dp59
g3
V999
p60
sg5
Vhttps://mobileshop.com.eg/en/mobiles/Mobile-brands/lenovo-mobile/lenovo-mobile-a1000-dual-sim-black-18-17-1071
p61
sg7
g56
sg9
VLenovo Mobile A1000 Dual Sim +Kidizina voucher
p62
sba(i__main__
Phone
p63
(dp64
g3
V2669
p65
sg5
Vhttps://mobileshop.com.eg/en/mobiles/Mobile-brands/lenovo-mobile/lenovo-mobile-a6020-plus-dual-sim-gold-18-17-1067
p66
sg7
g56
sg9
VLenovo Mobile A6020 Dual Sim
p67
sba(i__main__
Phone
p68
(dp69
g3
V1469
p70
sg5
Vhttps://mobileshop.com.eg/en/mobiles/Mobile-brands/lenovo-mobile/lenovo-vibe-b-18-18-1005
p71
sg7
g56
sg9
VLenovo Mobile Vibe B Dual SIM - 4G
p72
sba(i__main__
Phone
p73
(dp74
g3
V1679
p75
sg5
Vhttps://mobileshop.com.eg/en/mobiles/Mobile-brands/lenovo-mobile/lenovo-mobile-vibe-c-a2020-dual-black-18-17-1076
p76
sg7
g56
sg9
VLenovo Mobile Vibe C A2020 Dual
p77
sba(i__main__
Phone
p78
(dp79
g3
V2999
p80
sg5
Vhttps://mobileshop.com.eg/en/mobiles/Mobile-brands/lenovo-mobile/lenovo-mobile-vibe-k6-dual-gray-18-17-1084
p81
sg7
g56
sg9
VLenovo Mobile Vibe K6 Dual + Smart band
p82
sba(i__main__
Phone
p83
(dp84
g3
V3349
p85
sg5
Vhttps://mobileshop.com.eg/en/mobiles/Mobile-brands/lenovo-mobile/motorola-mobile-g5-18-18-1008
p86
sg7
g56
sg9
VMotorola Mobile  G5 + SmartBand+ Cover+ Screen
p87
sba(i__main__
Phone
p88
(dp89
g3
V9399
p90
sg5
Vhttps://mobileshop.com.eg/en/mobiles/Mobile-brands/lenovo-mobile/motorola-mobile-moto-z-black-18-18-1001
p91
sg7
g56
sg9
VMotorola Mobile Moto Z + Home appliance gift
p92
sba(i__main__
Phone
p93
(dp94
g3
V3749
p95
sg5
Vhttps://mobileshop.com.eg/en/mobiles/Mobile-brands/lenovo-mobile/lenovo-mobile-vibe-k6-note-k53a48-dual-gold-18-17-1081
p96
sg7
g56
sg9
VLenovo Mobile Vibe K6 Note Dual + Smartband
p97
sba(i__main__
Phone
p98
(dp99
g3
V6799
p100
sg5
Vhttps://mobileshop.com.eg/en/mobiles/Mobile-brands/lenovo-mobile/motorola-mobile-moto-z-play-black-18-18-1003
p101
sg7
g56
sg9
VMotorola Mobile Moto Z Play + Smart band
p102
sba(i__main__
Phone
p103
(dp104
g3
V1999
p105
sg5
Vhttps://mobileshop.com.eg/en/mobiles/Mobile-brands/lenovo-mobile/lenovo-mobile-a6010-plus-dual-sim-black-18-17-1062
p106
sg7
g56
sg9
VLenovo Mobile A6010 Plus Dual Sim
p107
sba(i__main__
Phone
p108
(dp109
g3
V5529
p110
sg5
Vhttps://mobileshop.com.eg/en/mobiles/Mobile-brands/lenovo-mobile/lenovo-mobile-vibe-p2-dual-gray-18-17-1082
p111
sg7
g56
sg9
VLenovo Mobile Vibe P2 Dual + Smartband
p112
sba(i__main__
Phone
p113
(dp114
g3
V2950
p115
sg5
Vhttps://mobileshop.com.eg/en/mobiles/Mobile-brands/lenovo-mobile/lenovo-mobile-a7010-dual-sim-black-18-17-1060
p116
sg7
g56
sg9
VLenovo Mobile Vibe K4 Note Dual sim
p117
sba(i__main__
Phone
p118
(dp119
g3
V1999
p120
sg5
Vhttps://mobileshop.com.eg/en/mobiles/Mobile-brands/lenovo-mobile/lenovo-mobile-c2-power-18-17-1078
p121
sg7
g56
sg9
VLenovo Mobile C2 Power Dual SIM
p122
sba(i__main__
Phone
p123
(dp124
g3
V8999
p125
sg5
Vhttps://mobileshop.com.eg/en/mobiles/Mobile-brands/htc-mobile/htc-u-play-mobile-18-16-1194
p126
sg7
VHTC
p127
sg9
VHTC -U-Play  Mobile
p128
sba(i__main__
Phone
p129
(dp130
g3
V10999
p131
sg5
Vhttps://mobileshop.com.eg/en/mobiles/Mobile-brands/htc-mobile/htc-10-mobile-18-16-1172
p132
sg7
g127
sg9
VHTC Mobile  One 10
p133
sba(i__main__
Phone
p134
(dp135
g3
V5299
p136
sg5
Vhttps://mobileshop.com.eg/en/mobiles/Mobile-brands/htc-mobile/htc-desire-10-lifestyle-dual-sim-mobile-white-18-16-1186
p137
sg7
g127
sg9
VHTC Mobile Desire 10 LifeStyle Dual Sim + SKI Egypt Voucher
p138
sba(i__main__
Phone
p139
(dp140
g3
V8299
p141
sg5
Vhttps://mobileshop.com.eg/en/mobiles/Mobile-brands/htc-mobile/htc-desire-10-pro-dual-sim-mobile-black-18-16-1187
p142
sg7
g127
sg9
VHTC Mobile Desire 10 Pro Dual Sim + SKI Egypt Voucher
p143
sba(i__main__
Phone
p144
(dp145
g3
V2199
p146
sg5
Vhttps://mobileshop.com.eg/en/mobiles/Mobile-brands/htc-mobile/htc-desire-620-dual-mobile-18-16-1133
p147
sg7
g127
sg9
VHTC Mobile Desire 620G Dual
p148
sba(i__main__
Phone
p149
(dp150
g3
V3499
p151
sg5
Vhttps://mobileshop.com.eg/en/mobiles/Mobile-brands/htc-mobile/htc-mobile-desire-628-dual-gray-discount-200-l-e-18-16-1184
p152
sg7
g127
sg9
VHTC Mobile Desire 628 Dual
p153
sba(i__main__
Phone
p154
(dp155
g3
V2999
p156
sg5
Vhttps://mobileshop.com.eg/en/mobiles/Mobile-brands/htc-mobile/htc-mobile-desire-630-dual-gold-18-16-1177
p157
sg7
g127
sg9
VHTC Mobile Desire 630 Dual + SD Card 8GB
p158
sba(i__main__
Phone
p159
(dp160
g3
V3699
p161
sg5
Vhttps://mobileshop.com.eg/en/mobiles/Mobile-brands/htc-mobile/htc-mobile-desire-728-ultra-dual-blackgold-18-16-1183
p162
sg7
g127
sg9
VHTC Mobile Desire 728 Ultra Dual + SD Card 8GB
p163
sba(i__main__
Phone
p164
(dp165
g3
V3199
p166
sg5
Vhttps://mobileshop.com.eg/en/mobiles/Mobile-brands/htc-mobile/htc-mobile-desire-820g-plus-dual-gray-18-16-1149
p167
sg7
g127
sg9
VHTC Mobile Desire 820G Plus Dual
p168
sba(i__main__
Phone
p169
(dp170
g3
V3599
p171
sg5
Vhttps://mobileshop.com.eg/en/mobiles/Mobile-brands/htc-mobile/htc-desire-828-dual-sim-mobile-desire-828
p172
sg7
g127
sg9
VHTC Mobile Desire 828G Dual + Cash back 300L.E
p173
sba(i__main__
Phone
p174
(dp175
g3
V5299
p176
sg5
Vhttps://mobileshop.com.eg/en/mobiles/Mobile-brands/htc-mobile/htc-mobile-one-x9-carbon-gray-18-16-1166
p177
sg7
g127
sg9
VHTC Mobile One X9 Dual + SKI Egypt Voucher
p178
sba(i__main__
Phone
p179
(dp180
g3
V14999
p181
sg5
Vhttps://mobileshop.com.eg/en/mobiles/Mobile-brands/htc-mobile/htc-u-ultra-mobile-18-16-1191
p182
sg7
g127
sg9
VHTC U-Ultra  Mobile
p183
sba(i__main__
Phone
p184
(dp185
g3
V11999
p186
sg5
Vhttps://mobileshop.com.eg/en/mobiles/Mobile-brands/apple-mobile/apple-iphone-6s-64-gb-17-91-1007
p187
sg7
VApple
p188
sg9
VApple IPhone 6S - 32GB
p189
sba(i__main__
Phone
p190
(dp191
g3
V10999
p192
sg5
Vhttps://mobileshop.com.eg/en/mobiles/Mobile-brands/apple-mobile/apple-iphone-6s-16-gb-17-91-1004
p193
sg7
g188
sg9
VApple IPhone 6S - 16 GB
p194
sba(i__main__
Phone
p195
(dp196
g3
V14999
p197
sg5
Vhttps://mobileshop.com.eg/en/mobiles/Mobile-brands/apple-mobile/apple-iphone-6s-64-gb-mobile-17-83-1067
p198
sg7
g188
sg9
VApple IPhone 6S - 64 GB
p199
sba(i__main__
Phone
p200
(dp201
g3
V17699
p202
sg5
Vhttps://mobileshop.com.eg/en/mobiles/Mobile-brands/apple-mobile/apple-iphone-6s-plus-64-gb-17-91-1003
p203
sg7
g188
sg9
VApple IPhone 6S Plus - 64 GB
p204
sba(i__main__
Phone
p205
(dp206
g3
V15599
p207
sg5
Vhttps://mobileshop.com.eg/en/mobiles/Mobile-brands/apple-mobile/iphone-7-32gb-black-17-91-1017
p208
sg7
g188
sg9
VApple Iphone 7 - 32GB
p209
sba(i__main__
Phone
p210
(dp211
g3
V16999
p212
sg5
Vhttps://mobileshop.com.eg/en/mobiles/Mobile-brands/apple-mobile/iphone-7-128gb-black-17-91-1013
p213
sg7
g188
sg9
VApple Iphone 7 - 128GB
p214
sba(i__main__
Phone
p215
(dp216
g3
V20349
p217
sg5
Vhttps://mobileshop.com.eg/en/mobiles/Mobile-brands/apple-mobile/apple-iphone-7-256gb-jet-black-17-91-1022
p218
sg7
g188
sg9
VApple Iphone 7 - 256GB
p219
sba(i__main__
Phone
p220
(dp221
g3
V18599
p222
sg5
Vhttps://mobileshop.com.eg/en/mobiles/Mobile-brands/apple-mobile/iphone-7-plus-128gb-grey-17-91-1020
p223
sg7
g188
sg9
VApple Iphone 7 Plus - 32GB
p224
sba(i__main__
Phone
p225
(dp226
g3
V20999
p227
sg5
Vhttps://mobileshop.com.eg/en/mobiles/Mobile-brands/apple-mobile/iphone-7-plus-128gb-gold-17-91-1016
p228
sg7
g188
sg9
VApple Iphone 7 Plus - 128GB
p229
sba(i__main__
Phone
p230
(dp231
g3
V1949
p232
sg5
Vhttps://mobileshop.com.eg/en/mobiles/Mobile-brands/samsung-mobile/samsung-galaxy-j1-ace-4g-black-17-55-1053
p233
sg7
VSamsung
p234
sg9
VSamsung Galaxy j1 Ace 4G
p235
sba(i__main__
Phone
p236
(dp237
g3
V1099
p238
sg5
Vhttps://mobileshop.com.eg/en/mobiles/Mobile-brands/samsung-mobile/samsung-galaxy-j1-mini-primeduos-black-17-57-1478
p239
sg7
g234
sg9
VSamsung Galaxy j1 Mini Prime Duos
p240
sba(i__main__
Phone
p241
(dp242
g3
V1639
p243
sg5
Vhttps://mobileshop.com.eg/en/mobiles/Mobile-brands/samsung-mobile/samsung-galaxy-j1-mini-prime4g-black-17-57-1493
p244
sg7
g234
sg9
VSamsung Galaxy j1 Mini Prime4G
p245
sba(i__main__
Phone
p246
(dp247
g3
V2249
p248
sg5
Vhttps://mobileshop.com.eg/en/mobiles/Mobile-brands/samsung-mobile/samsung-galaxygrand-prime-plus-duos-gold-17-57-1482
p249
sg7
g234
sg9
VSamsung Galaxy Mobile Grand Prime plus Duos
p250
sba(i__main__
Phone
p251
(dp252
g3
V1969
p253
sg5
Vhttps://mobileshop.com.eg/en/mobiles/Mobile-brands/samsung-mobile/samsung-galaxy-mobile-j1-2016-duos-black-17-59-1298
p254
sg7
g234
sg9
VSamsung Galaxy mobile J1 2016 Duos
p255
sba(i__main__
Phone
p256
(dp257
g3
V2099
p258
sg5
Vhttps://mobileshop.com.eg/en/mobiles/Mobile-brands/samsung-mobile/samsung-galaxy-mobile-j2-duos-gold-17-59-1265
p259
sg7
g234
sg9
VSamsung Galaxy Mobile J2 Duos +SD Card 16 GB
p260
sba(i__main__
Phone
p261
(dp262
g3
V3299
p263
sg5
Vhttps://mobileshop.com.eg/en/mobiles/Mobile-brands/samsung-mobile/samsung-galaxy-mobile-j5-2016-duos-gold-17-59-1289
p264
sg7
g234
sg9
VSamsung Galaxy Mobile J5 2016 Duos
p265
sba(i__main__
Phone
p266
(dp267
g3
V11999
p268
sg5
Vhttps://mobileshop.com.eg/en/mobiles/Mobile-brands/samsung-mobile/samsung-galaxy-mobile-s7-edge-dous-bluecoral-17-57-1487
p269
sg7
g234
sg9
VSamsung Galaxy Mobile S7 Edge Duos
p270
sba(i__main__
Phone
p271
(dp272
g3
V14299
p273
sg5
Vhttps://mobileshop.com.eg/en/mobiles/Mobile-brands/samsung-mobile/samsung-galaxy-mobile-s8-dual-sim-17-57-1503
p274
sg7
g234
sg9
VSamsung Galaxy Mobile S8 - Dual SIM + Level Box Slim
p275
sba(i__main__
Phone
p276
(dp277
g3
V16199
p278
sg5
Vhttps://mobileshop.com.eg/en/mobiles/Mobile-brands/samsung-mobile/samsung-galaxy-mobile-s8-plus-dual-sim-17-57-1506
p279
sg7
g234
sg9
VSamsung Galaxy Mobile S8 Plus - Dual SIM + Level Box Slim
p280
sba(i__main__
Phone
p281
(dp282
g3
V10499
p283
sg5
Vhttps://mobileshop.com.eg/en/mobiles/Mobile-brands/samsung-mobile/samsung-galaxy-note-5-black-mobile-17-56-1429
p284
sg7
g234
sg9
VSamsung Galaxy Note 5 Dous Mobile
p285
sba(i__main__
Phone
p286
(dp287
g3
V4499
p288
sg5
Vhttps://mobileshop.com.eg/en/mobiles/Mobile-brands/samsung-mobile/huawei-ascend-g610-dual-sim-17-15-1003
p289
sg7
g234
sg9
VSamsung Galaxy J7 Prime Duos + Power bank
p290
sba(i__main__
Phone
p291
(dp292
g3
V3499
p293
sg5
Vhttps://mobileshop.com.eg/en/mobiles/Mobile-brands/samsung-mobile/samsung-galaxy-j5-primeduos-gold-17-55-1045
p294
sg7
g234
sg9
VSamsung Mobile Galaxy j5 Prime Duos + Power Bank
p295
sba(i__main__
Phone
p296
(dp297
g3
V3299
p298
sg5
Vhttps://mobileshop.com.eg/en/mobiles/Mobile-brands/samsung-mobile/samsung-galaxy-mobile-j7-duos-black-17-55-1018
p299
sg7
g234
sg9
VSamsung Galaxy Mobile J7 Duos +SD Card 16GB
p300
sba(i__main__
Phone
p301
(dp302
g3
V7999
p303
sg5
Vhttps://mobileshop.com.eg/en/mobiles/Mobile-brands/samsung-mobile/samsung-monbile-a7-2017-reservation-a7-2017
p304
sg7
g234
sg9
VSamsung Mobile A7 2017 Dual Sim
p305
sba(i__main__
Phone
p306
(dp307
g3
V2199
p308
sg5
Vhttps://mobileshop.com.eg/en/mobiles/Mobile-brands/samsung-mobile/samsung-galaxy-mobile-j3-duos-black-17-59-1297
p309
sg7
g234
sg9
VSamsung Galaxy Mobile J3 Duos +SD Card 16GB
p310
sba(i__main__
Phone
p311
(dp312
g3
V5999
p313
sg5
Vhttps://mobileshop.com.eg/en/mobiles/Mobile-brands/samsung-mobile/samsung-monbile-a5-2017-dual-sim-black-17-57-1488
p314
sg7
g234
sg9
VSamsung Mobile A5 2017 Dual SIM
p315
sba(i__main__
Phone
p316
(dp317
g3
V2999
p318
sg5
Vhttps://mobileshop.com.eg/en/mobiles/Mobile-brands/samsung-mobile/samsung-galaxy-mobile-j5-duos-white-17-59-1254
p319
sg7
g234
sg9
VSamsung Galaxy Mobile J5 Duos + SD Card 16 GB
p320
sba(i__main__
Phone
p321
(dp322
g3
V3999
p323
sg5
Vhttps://mobileshop.com.eg/en/mobiles/Mobile-brands/samsung-mobile/samsung-galaxy-mobile-j7-2016-duos-gold-17-59-1305
p324
sg7
g234
sg9
VSamsung Galaxy Mobile J7 2016 Duos
p325
sba(i__main__
Phone
p326
(dp327
g3
V14299
p328
sg5
Vhttps://mobileshop.com.eg/en/mobiles/Mobile-brands/samsung-galaxy-mobile-s8-dual-sim-17-57-1503
p329
sg7
VZTE
p330
sg9
VSamsung Galaxy Mobile S8 - Dual SIM + Level Box Slim
p331
sba(i__main__
Phone
p332
(dp333
g3
V16199
p334
sg5
Vhttps://mobileshop.com.eg/en/mobiles/Mobile-brands/samsung-galaxy-mobile-s8-plus-dual-sim-17-57-1506
p335
sg7
g330
sg9
VSamsung Galaxy Mobile S8 Plus - Dual SIM + Level Box Slim
p336
sba(i__main__
Phone
p337
(dp338
g3
V255
p339
sg5
Vhttps://mobileshop.com.eg/en/mobiles/Mobile-brands/zte-mobile-r550-dual-17-98-1001
p340
sg7
g330
sg9
VZTE Mobile R550 Dual
p341
sba(i__main__
Phone
p342
(dp343
g3
V615
p344
sg5
Vhttps://mobileshop.com.eg/en/mobiles/Mobile-brands/nokia-mobile/nokia-108-dual-mobile-17-12-1263
p345
sg7
VNokia
p346
sg9
VNokia 108 Dual Mobile
p347
sba(i__main__
Phone
p348
(dp349
g3
V440
p350
sg5
Vhttps://mobileshop.com.eg/en/mobiles/Mobile-brands/nokia-mobile/nokia-130-duos-mobile-17-12-1303
p351
sg7
g346
sg9
VNokia Mobile 130 Dual SIM
p352
sba(i__main__
Phone
p353
(dp354
g3
V2850
p355
sg5
Vhttps://mobileshop.com.eg/en/mobiles/Mobile-brands/Infinix-mobile/infinix-hot-s-pro-dual-sim-mobile-gray-17-92-1010
p356
sg7
VInfinix
p357
sg9
VInfinix Hot S Pro  Dual Sim Mobile
p358
sba(i__main__
Phone
p359
(dp360
g3
V1760
p361
sg5
Vhttps://mobileshop.com.eg/en/mobiles/Mobile-brands/Infinix-mobile/infinix-x557-hot4-1ram-dual-sim-mobile-17-89-1001
p362
sg7
g357
sg9
VInfinix Mobile Hot 4 Dual Sim
p363
sba(i__main__
Phone
p364
(dp365
g3
V2640
p366
sg5
Vhttps://mobileshop.com.eg/en/mobiles/Mobile-brands/Infinix-mobile/infinix-x521-hot-s-2ram-dual-sim-mobile-17-89-1003
p367
sg7
g357
sg9
VInfinix Mobile Hot S Dual
p368
sba(i__main__
Phone
p369
(dp370
g3
V2999
p371
sg5
Vhttps://mobileshop.com.eg/en/mobiles/Mobile-brands/Infinix-mobile/infinix-x601-note3-2ram-dual-sim-grey-17-92-1002
p372
sg7
g357
sg9
VInfinix Mobile Note3 Dual Sim
p373
sba(i__main__
Phone
p374
(dp375
g3
V3999
p376
sg5
Vhttps://mobileshop.com.eg/en/mobiles/Mobile-brands/Infinix-mobile/infinix-mobile-zero-4-dual-sim-gray-17-92-1011
p377
sg7
g357
sg9
VInfinix Mobile Zero 4 Dual Sim
p378
sba(i__main__
Phone
p379
(dp380
g3
V5599
p381
sg5
Vhttps://mobileshop.com.eg/en/mobiles/Mobile-brands/Infinix-mobile/infinix-mobile-zero-4-plus-dual-sim-gold-17-92-1014
p382
sg7
g357
sg9
VInfinix Mobile Zero 4 Plus Dual Sim
p383
sba(i__main__
Phone
p384
(dp385
g3
V3888
p386
sg5
Vhttps://mobileshop.com.eg/en/mobiles/Mobile-brands/Infinix-mobile/infinix-mobile-zero3-dual-sim-gold-17-89-1008
p387
sg7
g357
sg9
VInfinix Mobile Zero3 Dual Sim
p388
sba(i__main__
Phone
p389
(dp390
g3
V5499
p391
sg5
Vhttps://mobileshop.com.eg/en/mobiles/Mobile-brands/Xiaomi_mobiles/xiaomi-mobile-mi-5-dual-white-17-88-1003
p392
sg7
VXiaomi
p393
sg9
VXiaomi Mobile MI 5 Dual (White)
p394
sba(i__main__
Phone
p395
(dp396
g3
V1999
p397
sg5
Vhttps://mobileshop.com.eg/en/mobiles/Mobile-brands/Xiaomi_mobiles/xiaomi-redmi-note-2-dual-sim-mobile-17-88-1004
p398
sg7
g393
sg9
VXiaomi Mobile Redmi Note 2 Dual (Gray)
p399
sba(i__main__
Phone
p400
(dp401
g3
V5535
p402
sg5
Vhttps://mobileshop.com.eg/en/mobiles/Mobile-brands/huawei-mobile/huawei-mobile-g8-dual-sim-gold-17-11-1419
p403
sg7
VHuawei
p404
sg9
VHuawei Mobile G8 Dual Sim
p405
sba(i__main__
Phone
p406
(dp407
g3
V4085
p408
sg5
Vhttps://mobileshop.com.eg/en/mobiles/Mobile-brands/huawei-mobile/huawei-gr3-2017-black-17-11-1436
p409
sg7
g404
sg9
VHuawei Mobile GR3 2017 Dual SIM
p410
sba(i__main__
Phone
p411
(dp412
g3
V4969
p413
sg5
Vhttps://mobileshop.com.eg/en/mobiles/Mobile-brands/huawei-mobile/huawei-gr5-2017-gold-17-11-1434
p414
sg7
g404
sg9
VHuawei Mobile GR5 2017 Dual SIM
p415
sba(i__main__
Phone
p416
(dp417
g3
V3840
p418
sg5
Vhttps://mobileshop.com.eg/en/mobiles/Mobile-brands/huawei-mobile/huawei-mobile-gr5-dual-sim-gray-17-11-1398
p419
sg7
g404
sg9
VHuawei Mobile GR5 Dual Sim
p420
sba(i__main__
Phone
p421
(dp422
g3
V11629
p423
sg5
Vhttps://mobileshop.com.eg/en/mobiles/Mobile-brands/huawei-mobile/huawei-mate-9-champagne-gold-17-94-1002
p424
sg7
g404
sg9
VHuawei Mobile Mate 9 Dual SIM
p425
sba(i__main__
Phone
p426
(dp427
g3
V6669
p428
sg5
Vhttps://mobileshop.com.eg/en/mobiles/Mobile-brands/huawei-mobile/huawei-nova-plus-gold-17-11-1427
p429
sg7
g404
sg9
VHuawei Mobile Nova Plus Dual Si
p430
sba(i__main__
Phone
p431
(dp432
g3
V10999
p433
sg5
Vhttps://mobileshop.com.eg/en/mobiles/Mobile-brands/huawei-mobile/huawei-mobile-p10-dual-sim-17-34-1031
p434
sg7
g404
sg9
VHuawei Mobile P10 - Dual Sim + 3 nights in best hotels
p435
sba(i__main__
Phone
p436
(dp437
g3
V5699
p438
sg5
Vhttps://mobileshop.com.eg/en/mobiles/Mobile-brands/huawei-mobile/huawei-mobile-p10-lite-dual-sim-17-32-1039
p439
sg7
g404
sg9
VHuawei Mobile P10 Lite - Dual Sim
p440
sba(i__main__
Phone
p441
(dp442
g3
V13299
p443
sg5
Vhttps://mobileshop.com.eg/en/mobiles/Mobile-brands/huawei-mobile/huawei-mobile-p10-plus-dual-sim-17-34-1034
p444
sg7
g404
sg9
VHuawei Mobile P10 Plus - Dual Sim + 3 best night in the best hotes
p445
sba(i__main__
Phone
p446
(dp447
g3
V9365
p448
sg5
Vhttps://mobileshop.com.eg/en/mobiles/Mobile-brands/huawei-mobile/huawei-p9-mobile-gold-17-32-1012
p449
sg7
g404
sg9
VHuawei Mobile P9 Dual Sim
p450
sba(i__main__
Phone
p451
(dp452
g3
V1775
p453
sg5
Vhttps://mobileshop.com.eg/en/mobiles/Mobile-brands/huawei-mobile/huawei-mobile-y3-ii-4g-dual-sim-white-17-11-1428
p454
sg7
g404
sg9
VHuawei Mobile Y3 II - 4G + SD Card 8GB
p455
sba(i__main__
Phone
p456
(dp457
g3
V1650
p458
sg5
Vhttps://mobileshop.com.eg/en/mobiles/Mobile-brands/huawei-mobile/huawei-mobile-y3-ii-dual-sim-black-17-32-1017
p459
sg7
g404
sg9
VHuawei Mobile Y3 II Dual Sim
p460
sba(i__main__
Phone
p461
(dp462
g3
V1050
p463
sg5
Vhttps://mobileshop.com.eg/en/mobiles/Mobile-brands/huawei-mobile/huawei-y3c-dual-sim-mobile-17-16-1047
p464
sg7
g404
sg9
VHuawei Mobile Y3C Dual Sim
p465
sba(i__main__
Phone
p466
(dp467
g3
V2140
p468
sg5
Vhttps://mobileshop.com.eg/en/mobiles/Mobile-brands/huawei-mobile/huawei-mobile-y5-ii-4g-dual-sim-black-17-11-1430
p469
sg7
g404
sg9
VHuawei Mobile Y5 II 4G Dual Sim + SD Card 8GB
p470
sba(i__main__
Phone
p471
(dp472
g3
V1965
p473
sg5
Vhttps://mobileshop.com.eg/en/mobiles/Mobile-brands/huawei-mobile/huawei-mobile-y5-ii-dual-sim-black-17-32-1021
p474
sg7
g404
sg9
VHuawei Mobile Y5 II Dual Sim
p475
sba(i__main__
Phone
p476
(dp477
g3
V3800
p478
sg5
Vhttps://mobileshop.com.eg/en/mobiles/Mobile-brands/huawei-mobile/huawei-mobile-p9-lite-dual-sim-black-gift-voucher-500-l-e-win-a-trip-to-south-africa-17-11-1422
p479
sg7
g404
sg9
VHuawei Mobile P9 Lite Dual Sim
p480
sba(i__main__
Phone
p481
(dp482
g3
V3335
p483
sg5
Vhttps://mobileshop.com.eg/en/mobiles/Mobile-brands/huawei-mobile/huawei-mobile-y6-ii-dual-white-17-11-1417
p484
sg7
g404
sg9
VHuawei Mobile Y6 II Dual
p485
sba(i__main__
Phone
p486
(dp487
g3
V2939
p488
sg5
Vhttps://mobileshop.com.eg/en/mobiles/Mobile-brands/huawei-mobile/huawei-mobile-y6-pro-dual-sim-gray-17-11-1387
p489
sg7
g404
sg9
VHuawei Mobile Y6 Pro Dual Sim + (Cash Back 300 L.E)
p490
sba(i__main__
Phone
p491
(dp492
g3
V5555
p493
sg5
Vhttps://mobileshop.com.eg/en/mobiles/Mobile-brands/asus-mobiles/asus-mobile-zenfone-2-deluxe-17-97-1001
p494
sg7
VAsus
p495
sg9
VASUS Mobile Zenfone 2 DELUXE
p496
sba(i__main__
Phone
p497
(dp498
g3
V3399
p499
sg5
Vhttps://mobileshop.com.eg/en/mobiles/Mobile-brands/asus-mobiles/asus-mobile-zenfone-max-17-97-1014
p500
sg7
g495
sg9
VASUS Mobile Zenfone Max
p501
sba(i__main__
Phone
p502
(dp503
g3
V3999
p504
sg5
Vhttps://mobileshop.com.eg/en/mobiles/Mobile-brands/asus-mobiles/asus-mobile-zenfone-selfie-16-gb-17-97-1010
p505
sg7
g495
sg9
VASUS Mobile Zenfone SELFIE - 16 GB
p506
sba(i__main__
Phone
p507
(dp508
g3
V4199
p509
sg5
Vhttps://mobileshop.com.eg/en/mobiles/Mobile-brands/asus-mobiles/asus-mobile-zenfone-selfie-32-gb-17-97-1007
p510
sg7
g495
sg9
VASUS Mobile Zenfone SELFIE - 32 GB
p511
sba(i__main__
Phone
p512
(dp513
g3
V2649
p514
sg5
Vhttps://mobileshop.com.eg/en/mobiles/Mobile-brands/asus-mobiles/asus-mobile-zenfone-go-plus-17-97-1012
p515
sg7
g495
sg9
VASUS Mobile Zenfone Go Plus
p516
sba(i__main__
Phone
p517
(dp518
g3
V3999
p519
sg5
Vhttps://mobileshop.com.eg/en/mobiles/Mobile-brands/sony-mobile/sony-xperia-mobile-xa-dual-sim-white-memory-card-16gb-17-80-1102
p520
sg7
VSony
p521
sg9
VSony Xperia Mobile XA Dual SIM
p522
sba(i__main__
Phone
p523
(dp524
g3
V5399
p525
sg5
Vhttps://mobileshop.com.eg/en/mobiles/Mobile-brands/sony-mobile/sony-xperia-mobile-xa-ultra-dual-sim-white-17-80-1094
p526
sg7
g521
sg9
VSony Xperia Mobile XA Ultra Dual SIM
p527
sba(i__main__
Phone
p528
(dp529
g3
V9999
p530
sg5
Vhttps://mobileshop.com.eg/en/mobiles/Mobile-brands/sony-mobile/sony-xperia-mobile-xz-black-17-80-1099
p531
sg7
g521
sg9
VSony Xperia Mobile XZ + Sony Smart Watch
p532
sba(i__main__
Phone
p533
(dp534
g3
V6799
p535
sg5
Vhttps://mobileshop.com.eg/en/mobiles/Mobile-brands/sony-mobile/sonyf5122xperia-x-dual-sim-mobile-17-80-1091
p536
sg7
g521
sg9
VSonyF5122Xperia X Dual Sim Mobile + Cash back 600L.E
p537
sba(i__main__
Phone
p538
(dp539
g3
V7450
p540
sg5
Vhttps://mobileshop.com.eg/en/mobiles/Mobile-brands/sony-mobile/sony-xperia-mobile-z5-dual-sim-gold-17-80-1084
p541
sg7
g521
sg9
VSony Xperia Mobile Z5 Dual Sim + Cash back 600L.E
p542
sba(i__main__
Phone
p543
(dp544
g3
V5749
p545
sg5
Vhttps://mobileshop.com.eg/en/mobiles/Mobile-brands/sony-mobile/sony-xperia-mobile-x-compact-black-17-80-1097
p546
sg7
g521
sg9
VSony Xperia Mobile X Compact
p547
sba(i__main__
Phone
p548
(dp549
g3
V8599
p550
sg5
Vhttps://mobileshop.com.eg/en/mobiles/Mobile-brands/sony-mobile/sony-xperia-mobile-z5-premium-dual-sim-chrome-17-80-1082
p551
sg7
g521
sg9
VSony Xperia Mobile Z5 premium Dual Sim + Cash back 600 LE.
p552
sba.